target datalayout = "e-m:e-p270:32:32-p271:32:32-p272:64:64-i64:64-i128:128-f80:128-n8:16:32:64-S128"
target triple = "x86_64-pc-linux-gnu"

%"struct.icu_77::FormattedStringBuilder::Field" = type { i8 }
%"struct.icu_77::number::impl::Modifier::Parameters" = type { ptr, i32, i32 }
%"class.icu_77::number::impl::Modifier" = type { ptr }
%"class.icu_77::UObject" = type { ptr }
%"class.icu_77::UnicodeString" = type { %"class.icu_77::Replaceable", %"union.icu_77::UnicodeString::StackBufferOrFields" }
%"class.icu_77::Replaceable" = type { %"class.icu_77::UObject" }
%"union.icu_77::UnicodeString::StackBufferOrFields" = type { %struct.anon.3, [32 x i8] }
%struct.anon.3 = type { i16, i32, i32, ptr }
%"class.icu_77::number::impl::SimpleModifier" = type { %"class.icu_77::number::impl::Modifier", %"class.icu_77::UnicodeString", %"struct.icu_77::FormattedStringBuilder::Field", i8, i32, i32, i32, %"struct.icu_77::number::impl::Modifier::Parameters" }
%"class.icu_77::SimpleFormatter" = type { [8 x i8], %"class.icu_77::UnicodeString" }
%struct.anon.2 = type { i16, [27 x i16] }

; Function Attrs: inlinehint mustprogress nounwind uwtable
define linkonce_odr noundef ptr @_ZNK6icu_7713UnicodeString13getArrayStartEv(ptr noundef nonnull align 8 dereferenceable(64) %0) #10 comdat align 2 {
  %2 = alloca ptr, align 8
  store ptr %0, ptr %2, align 8, !tbaa !42
  %3 = load ptr, ptr %2, align 8
  %4 = getelementptr inbounds nuw %"class.icu_77::UnicodeString", ptr %3, i32 0, i32 1
  %5 = getelementptr inbounds nuw %struct.anon.3, ptr %4, i32 0, i32 0
  %6 = load i16, ptr %5, align 8, !tbaa !41
  %7 = sext i16 %6 to i32
  %8 = and i32 %7, 2
  %9 = icmp ne i32 %8, 0
  br i1 %9, label %10, label %14

10:                                               ; preds = %1
  %11 = getelementptr inbounds nuw %"class.icu_77::UnicodeString", ptr %3, i32 0, i32 1
  %12 = getelementptr inbounds nuw %struct.anon.2, ptr %11, i32 0, i32 1
  %13 = getelementptr inbounds [27 x i16], ptr %12, i64 0, i64 0
  br label %18

14:                                               ; preds = %1
  %15 = getelementptr inbounds nuw %"class.icu_77::UnicodeString", ptr %3, i32 0, i32 1
  %16 = getelementptr inbounds nuw %struct.anon.3, ptr %15, i32 0, i32 3
  %17 = load ptr, ptr %16, align 8, !tbaa !41
  br label %18

18:                                               ; preds = %14, %10
  %19 = phi ptr [ %13, %10 ], [ %17, %14 ]
  ret ptr %19
}

; Function Attrs: inlinehint mustprogress uwtable
define linkonce_odr noundef zeroext i16 @_ZNK6icu_7713UnicodeString8doCharAtEi(ptr noundef nonnull align 8 dereferenceable(64) %0, i32 noundef %1) #7 comdat align 2 {
  %3 = alloca i16, align 2
  %4 = alloca ptr, align 8
  %5 = alloca i32, align 4
  store ptr %0, ptr %4, align 8, !tbaa !42
  store i32 %1, ptr %5, align 4, !tbaa !37
  %6 = load ptr, ptr %4, align 8
  %7 = load i32, ptr %5, align 4, !tbaa !37
  %8 = call noundef i32 @_ZNK6icu_7713UnicodeString6lengthEv(ptr noundef nonnull align 8 dereferenceable(64) %6)
  %9 = icmp ult i32 %7, %8
  br i1 %9, label %10, label %16

10:                                               ; preds = %2
  %11 = call noundef ptr @_ZNK6icu_7713UnicodeString13getArrayStartEv(ptr noundef nonnull align 8 dereferenceable(64) %6)
  %12 = load i32, ptr %5, align 4, !tbaa !37
  %13 = sext i32 %12 to i64
  %14 = getelementptr inbounds i16, ptr %11, i64 %13
  %15 = load i16, ptr %14, align 2, !tbaa !70
  store i16 %15, ptr %3, align 2
  br label %17

16:                                               ; preds = %2
  store i16 -1, ptr %3, align 2
  br label %17

17:                                               ; preds = %16, %10
  %18 = load i16, ptr %3, align 2
  ret i16 %18
}

; Function Attrs: inlinehint mustprogress nounwind uwtable
define linkonce_odr noundef i32 @_ZNK6icu_7713UnicodeString14getShortLengthEv(ptr noundef nonnull align 8 dereferenceable(64) %0) #10 comdat align 2 {
  %2 = alloca ptr, align 8
  store ptr %0, ptr %2, align 8, !tbaa !42
  %3 = load ptr, ptr %2, align 8
  %4 = getelementptr inbounds nuw %"class.icu_77::UnicodeString", ptr %3, i32 0, i32 1
  %5 = getelementptr inbounds nuw %struct.anon.3, ptr %4, i32 0, i32 0
  %6 = load i16, ptr %5, align 8, !tbaa !41
  %7 = sext i16 %6 to i32
  %8 = ashr i32 %7, 5
  ret i32 %8
}

; Function Attrs: inlinehint mustprogress nounwind uwtable
define linkonce_odr noundef signext i8 @_ZNK6icu_7713UnicodeString14hasShortLengthEv(ptr noundef nonnull align 8 dereferenceable(64) %0) #10 comdat align 2 {
  %2 = alloca ptr, align 8
  store ptr %0, ptr %2, align 8, !tbaa !42
  %3 = load ptr, ptr %2, align 8
  %4 = getelementptr inbounds nuw %"class.icu_77::UnicodeString", ptr %3, i32 0, i32 1
  %5 = getelementptr inbounds nuw %struct.anon.3, ptr %4, i32 0, i32 0
  %6 = load i16, ptr %5, align 8, !tbaa !41
  %7 = sext i16 %6 to i32
  %8 = icmp sge i32 %7, 0
  %9 = zext i1 %8 to i8
  ret i8 %9
}

; Function Attrs: mustprogress nounwind uwtable
define void @_ZN6icu_776number4impl8ModifierD2Ev(ptr noundef nonnull align 8 dereferenceable(8) %0) unnamed_addr #0 align 2 {
  %2 = alloca ptr, align 8
  store ptr %0, ptr %2, align 8, !tbaa !3
  ret void
}

; Function Attrs: inlinehint mustprogress uwtable
define linkonce_odr noundef zeroext i16 @_ZNK6icu_7713UnicodeString6charAtEi(ptr noundef nonnull align 8 dereferenceable(64) %0, i32 noundef %1) #7 comdat align 2 {
  %3 = alloca ptr, align 8
  %4 = alloca i32, align 4
  store ptr %0, ptr %3, align 8, !tbaa !42
  store i32 %1, ptr %4, align 4, !tbaa !37
  %5 = load ptr, ptr %3, align 8
  %6 = load i32, ptr %4, align 4, !tbaa !37
  %7 = call noundef zeroext i16 @_ZNK6icu_7713UnicodeString8doCharAtEi(ptr noundef nonnull align 8 dereferenceable(64) %5, i32 noundef %6)
  ret i16 %7
}

; Function Attrs: inlinehint mustprogress nounwind uwtable
define linkonce_odr noundef i32 @_ZN6icu_7715SimpleFormatter16getArgumentLimitEPKDsi(ptr noundef %0, i32 noundef %1) #10 comdat align 2 {
  %3 = alloca ptr, align 8
  %4 = alloca i32, align 4
  store ptr %0, ptr %3, align 8, !tbaa !68
  store i32 %1, ptr %4, align 4, !tbaa !37
  %5 = load i32, ptr %4, align 4, !tbaa !37
  %6 = icmp eq i32 %5, 0
  br i1 %6, label %7, label %8

7:                                                ; preds = %2
  br label %13

8:                                                ; preds = %2
  %9 = load ptr, ptr %3, align 8, !tbaa !68
  %10 = getelementptr inbounds i16, ptr %9, i64 0
  %11 = load i16, ptr %10, align 2, !tbaa !70
  %12 = zext i16 %11 to i32
  br label %13

13:                                               ; preds = %8, %7
  %14 = phi i32 [ 0, %7 ], [ %12, %8 ]
  ret i32 %14
}

; Function Attrs: inlinehint mustprogress uwtable
define linkonce_odr noundef i32 @_ZNK6icu_7713UnicodeString6lengthEv(ptr noundef nonnull align 8 dereferenceable(64) %0) #7 comdat align 2 {
  %2 = alloca ptr, align 8
  store ptr %0, ptr %2, align 8, !tbaa !42
  %3 = load ptr, ptr %2, align 8
  %4 = call noundef signext i8 @_ZNK6icu_7713UnicodeString14hasShortLengthEv(ptr noundef nonnull align 8 dereferenceable(64) %3)
  %5 = icmp ne i8 %4, 0
  br i1 %5, label %6, label %8

6:                                                ; preds = %1
  %7 = call noundef i32 @_ZNK6icu_7713UnicodeString14getShortLengthEv(ptr noundef nonnull align 8 dereferenceable(64) %3)
  br label %12

8:                                                ; preds = %1
  %9 = getelementptr inbounds nuw %"class.icu_77::UnicodeString", ptr %3, i32 0, i32 1
  %10 = getelementptr inbounds nuw %struct.anon.3, ptr %9, i32 0, i32 1
  %11 = load i32, ptr %10, align 4, !tbaa !41
  br label %12

12:                                               ; preds = %8, %6
  %13 = phi i32 [ %7, %6 ], [ %11, %8 ]
  ret i32 %13
}

; Function Attrs: inlinehint mustprogress nounwind uwtable
define linkonce_odr noundef ptr @_ZNK6icu_7713UnicodeString9getBufferEv(ptr noundef nonnull align 8 dereferenceable(64) %0) #10 comdat align 2 {
  %2 = alloca ptr, align 8
  %3 = alloca ptr, align 8
  store ptr %0, ptr %3, align 8, !tbaa !42
  %4 = load ptr, ptr %3, align 8
  %5 = getelementptr inbounds nuw %"class.icu_77::UnicodeString", ptr %4, i32 0, i32 1
  %6 = getelementptr inbounds nuw %struct.anon.3, ptr %5, i32 0, i32 0
  %7 = load i16, ptr %6, align 8, !tbaa !41
  %8 = sext i16 %7 to i32
  %9 = and i32 %8, 17
  %10 = icmp ne i32 %9, 0
  br i1 %10, label %11, label %12

11:                                               ; preds = %1
  store ptr null, ptr %2, align 8
  br label %27

12:                                               ; preds = %1
  %13 = getelementptr inbounds nuw %"class.icu_77::UnicodeString", ptr %4, i32 0, i32 1
  %14 = getelementptr inbounds nuw %struct.anon.3, ptr %13, i32 0, i32 0
  %15 = load i16, ptr %14, align 8, !tbaa !41
  %16 = sext i16 %15 to i32
  %17 = and i32 %16, 2
  %18 = icmp ne i32 %17, 0
  br i1 %18, label %19, label %23

19:                                               ; preds = %12
  %20 = getelementptr inbounds nuw %"class.icu_77::UnicodeString", ptr %4, i32 0, i32 1
  %21 = getelementptr inbounds nuw %struct.anon.2, ptr %20, i32 0, i32 1
  %22 = getelementptr inbounds [27 x i16], ptr %21, i64 0, i64 0
  store ptr %22, ptr %2, align 8
  br label %27

23:                                               ; preds = %12
  %24 = getelementptr inbounds nuw %"class.icu_77::UnicodeString", ptr %4, i32 0, i32 1
  %25 = getelementptr inbounds nuw %struct.anon.3, ptr %24, i32 0, i32 3
  %26 = load ptr, ptr %25, align 8, !tbaa !41
  store ptr %26, ptr %2, align 8
  br label %27

27:                                               ; preds = %23, %19, %11
  %28 = load ptr, ptr %2, align 8
  ret ptr %28
}

; Function Attrs: inlinehint mustprogress nounwind uwtable
define linkonce_odr void @_ZN6icu_776number4impl8ModifierC2Ev(ptr noundef nonnull align 8 dereferenceable(8) %0) unnamed_addr #10 comdat align 2 {
  %2 = alloca ptr, align 8
  store ptr %0, ptr %2, align 8, !tbaa !3
  %3 = load ptr, ptr %2, align 8
  store ptr getelementptr inbounds inrange(-16, 72) ({ [11 x ptr] }, ptr @_ZTVN6icu_776number4impl8ModifierE, i32 0, i32 0, i32 2), ptr %3, align 8, !tbaa !20
  ret void
}

; Function Attrs: mustprogress uwtable
define void @_ZN6icu_776number4impl14SimpleModifierC2ERKNS_15SimpleFormatterENS_22FormattedStringBuilder5FieldEbNS1_8Modifier10ParametersE(ptr noundef nonnull align 8 dereferenceable(104) %0, ptr noundef nonnull align 8 dereferenceable(72) %1, i8 %2, i1 noundef zeroext %3, ptr %4, i64 %5) unnamed_addr #2 align 2 personality ptr @__gxx_personality_v0 {
  %7 = alloca %"struct.icu_77::FormattedStringBuilder::Field", align 1
  %8 = alloca %"struct.icu_77::number::impl::Modifier::Parameters", align 8
  %9 = alloca ptr, align 8
  %10 = alloca ptr, align 8
  %11 = alloca i8, align 1
  %12 = alloca ptr, align 8
  %13 = alloca i32, align 4
  %14 = alloca i32, align 4
  %15 = getelementptr inbounds nuw %"struct.icu_77::FormattedStringBuilder::Field", ptr %7, i32 0, i32 0
  store i8 %2, ptr %15, align 1
  %16 = getelementptr inbounds nuw { ptr, i64 }, ptr %8, i32 0, i32 0
  store ptr %4, ptr %16, align 8
  %17 = getelementptr inbounds nuw { ptr, i64 }, ptr %8, i32 0, i32 1
  store i64 %5, ptr %17, align 8
  store ptr %0, ptr %9, align 8, !tbaa !57
  store ptr %1, ptr %10, align 8, !tbaa !59
  %18 = zext i1 %3 to i8
  store i8 %18, ptr %11, align 1, !tbaa !61
  %19 = load ptr, ptr %9, align 8
  call void @_ZN6icu_776number4impl8ModifierC2Ev(ptr noundef nonnull align 8 dereferenceable(8) %19) #15
  store ptr getelementptr inbounds inrange(-16, 72) ({ [11 x ptr] }, ptr @_ZTVN6icu_776number4impl14SimpleModifierE, i32 0, i32 0, i32 2), ptr %19, align 8, !tbaa !20
  %20 = getelementptr inbounds nuw %"class.icu_77::number::impl::SimpleModifier", ptr %19, i32 0, i32 1
  %21 = load ptr, ptr %10, align 8, !tbaa !59
  %22 = getelementptr inbounds nuw %"class.icu_77::SimpleFormatter", ptr %21, i32 0, i32 1
  invoke void @_ZN6icu_7713UnicodeStringC1ERKS0_(ptr noundef nonnull align 8 dereferenceable(64) %20, ptr noundef nonnull align 8 dereferenceable(64) %22)
          to label %23 unwind label %52

23:                                               ; preds = %6
  %24 = getelementptr inbounds nuw %"class.icu_77::number::impl::SimpleModifier", ptr %19, i32 0, i32 2
  call void @llvm.memcpy.p0.p0.i64(ptr align 8 %24, ptr align 1 %7, i64 1, i1 false), !tbaa.struct !40
  %25 = getelementptr inbounds nuw %"class.icu_77::number::impl::SimpleModifier", ptr %19, i32 0, i32 3
  %26 = load i8, ptr %11, align 1, !tbaa !61, !range !52, !noundef !53
  %27 = trunc i8 %26 to i1
  %28 = zext i1 %27 to i8
  store i8 %28, ptr %25, align 1, !tbaa !62
  %29 = getelementptr inbounds nuw %"class.icu_77::number::impl::SimpleModifier", ptr %19, i32 0, i32 4
  store i32 0, ptr %29, align 4, !tbaa !64
  %30 = getelementptr inbounds nuw %"class.icu_77::number::impl::SimpleModifier", ptr %19, i32 0, i32 5
  store i32 -1, ptr %30, align 8, !tbaa !65
  %31 = getelementptr inbounds nuw %"class.icu_77::number::impl::SimpleModifier", ptr %19, i32 0, i32 6
  store i32 0, ptr %31, align 4, !tbaa !66
  %32 = getelementptr inbounds nuw %"class.icu_77::number::impl::SimpleModifier", ptr %19, i32 0, i32 7
  call void @llvm.memcpy.p0.p0.i64(ptr align 8 %32, ptr align 8 %8, i64 16, i1 false), !tbaa.struct !67
  call void @llvm.lifetime.start.p0(i64 4, ptr %14) #15
  %33 = getelementptr inbounds nuw %"class.icu_77::number::impl::SimpleModifier", ptr %19, i32 0, i32 1
  %34 = invoke noundef ptr @_ZNK6icu_7713UnicodeString9getBufferEv(ptr noundef nonnull align 8 dereferenceable(64) %33)
          to label %35 unwind label %56

35:                                               ; preds = %23
  %36 = getelementptr inbounds nuw %"class.icu_77::number::impl::SimpleModifier", ptr %19, i32 0, i32 1
  %37 = invoke noundef i32 @_ZNK6icu_7713UnicodeString6lengthEv(ptr noundef nonnull align 8 dereferenceable(64) %36)
          to label %38 unwind label %56

38:                                               ; preds = %35
  %39 = invoke noundef i32 @_ZN6icu_7715SimpleFormatter16getArgumentLimitEPKDsi(ptr noundef %34, i32 noundef %37)
          to label %40 unwind label %56

40:                                               ; preds = %38
  store i32 %39, ptr %14, align 4, !tbaa !37
  %41 = load i32, ptr %14, align 4, !tbaa !37
  %42 = icmp eq i32 %41, 0
  br i1 %42, label %43, label %60

43:                                               ; preds = %40
  %44 = getelementptr inbounds nuw %"class.icu_77::number::impl::SimpleModifier", ptr %19, i32 0, i32 1
  %45 = invoke noundef zeroext i16 @_ZNK6icu_7713UnicodeString6charAtEi(ptr noundef nonnull align 8 dereferenceable(64) %44, i32 noundef 1)
          to label %46 unwind label %56

46:                                               ; preds = %43
  %47 = zext i16 %45 to i32
  %48 = sub nsw i32 %47, 256
  %49 = getelementptr inbounds nuw %"class.icu_77::number::impl::SimpleModifier", ptr %19, i32 0, i32 4
  store i32 %48, ptr %49, align 4, !tbaa !64
  %50 = getelementptr inbounds nuw %"class.icu_77::number::impl::SimpleModifier", ptr %19, i32 0, i32 5
  store i32 -1, ptr %50, align 8, !tbaa !65
  %51 = getelementptr inbounds nuw %"class.icu_77::number::impl::SimpleModifier", ptr %19, i32 0, i32 6
  store i32 0, ptr %51, align 4, !tbaa !66
  br label %100

52:                                               ; preds = %6
  %53 = landingpad { ptr, i32 }
          cleanup
  %54 = extractvalue { ptr, i32 } %53, 0
  store ptr %54, ptr %12, align 8
  %55 = extractvalue { ptr, i32 } %53, 1
  store i32 %55, ptr %13, align 4
  br label %101

56:                                               ; preds = %88, %80, %66, %60, %43, %38, %35, %23
  %57 = landingpad { ptr, i32 }
          cleanup
  %58 = extractvalue { ptr, i32 } %57, 0
  store ptr %58, ptr %12, align 8
  %59 = extractvalue { ptr, i32 } %57, 1
  store i32 %59, ptr %13, align 4
  call void @llvm.lifetime.end.p0(i64 4, ptr %14) #15
  call void @_ZN6icu_7713UnicodeStringD1Ev(ptr noundef nonnull align 8 dereferenceable(64) %20) #15
  br label %101

60:                                               ; preds = %40
  %61 = getelementptr inbounds nuw %"class.icu_77::number::impl::SimpleModifier", ptr %19, i32 0, i32 1
  %62 = invoke noundef zeroext i16 @_ZNK6icu_7713UnicodeString6charAtEi(ptr noundef nonnull align 8 dereferenceable(64) %61, i32 noundef 1)
          to label %63 unwind label %56

63:                                               ; preds = %60
  %64 = zext i16 %62 to i32
  %65 = icmp ne i32 %64, 0
  br i1 %65, label %66, label %77

66:                                               ; preds = %63
  %67 = getelementptr inbounds nuw %"class.icu_77::number::impl::SimpleModifier", ptr %19, i32 0, i32 1
  %68 = invoke noundef zeroext i16 @_ZNK6icu_7713UnicodeString6charAtEi(ptr noundef nonnull align 8 dereferenceable(64) %67, i32 noundef 1)
          to label %69 unwind label %56

69:                                               ; preds = %66
  %70 = zext i16 %68 to i32
  %71 = sub nsw i32 %70, 256
  %72 = getelementptr inbounds nuw %"class.icu_77::number::impl::SimpleModifier", ptr %19, i32 0, i32 4
  store i32 %71, ptr %72, align 4, !tbaa !64
  %73 = getelementptr inbounds nuw %"class.icu_77::number::impl::SimpleModifier", ptr %19, i32 0, i32 4
  %74 = load i32, ptr %73, align 4, !tbaa !64
  %75 = add nsw i32 3, %74
  %76 = getelementptr inbounds nuw %"class.icu_77::number::impl::SimpleModifier", ptr %19, i32 0, i32 5
  store i32 %75, ptr %76, align 8, !tbaa !65
  br label %80

77:                                               ; preds = %63
  %78 = getelementptr inbounds nuw %"class.icu_77::number::impl::SimpleModifier", ptr %19, i32 0, i32 4
  store i32 0, ptr %78, align 4, !tbaa !64
  %79 = getelementptr inbounds nuw %"class.icu_77::number::impl::SimpleModifier", ptr %19, i32 0, i32 5
  store i32 2, ptr %79, align 8, !tbaa !65
  br label %80

80:                                               ; preds = %77, %69
  %81 = getelementptr inbounds nuw %"class.icu_77::number::impl::SimpleModifier", ptr %19, i32 0, i32 4
  %82 = load i32, ptr %81, align 4, !tbaa !64
  %83 = add nsw i32 3, %82
  %84 = getelementptr inbounds nuw %"class.icu_77::number::impl::SimpleModifier", ptr %19, i32 0, i32 1
  %85 = invoke noundef i32 @_ZNK6icu_7713UnicodeString6lengthEv(ptr noundef nonnull align 8 dereferenceable(64) %84)
          to label %86 unwind label %56

86:                                               ; preds = %80
  %87 = icmp slt i32 %83, %85
  br i1 %87, label %88, label %97

88:                                               ; preds = %86
  %89 = getelementptr inbounds nuw %"class.icu_77::number::impl::SimpleModifier", ptr %19, i32 0, i32 1
  %90 = getelementptr inbounds nuw %"class.icu_77::number::impl::SimpleModifier", ptr %19, i32 0, i32 5
  %91 = load i32, ptr %90, align 8, !tbaa !65
  %92 = invoke noundef zeroext i16 @_ZNK6icu_7713UnicodeString6charAtEi(ptr noundef nonnull align 8 dereferenceable(64) %89, i32 noundef %91)
          to label %93 unwind label %56

93:                                               ; preds = %88
  %94 = zext i16 %92 to i32
  %95 = sub nsw i32 %94, 256
  %96 = getelementptr inbounds nuw %"class.icu_77::number::impl::SimpleModifier", ptr %19, i32 0, i32 6
  store i32 %95, ptr %96, align 4, !tbaa !66
  br label %99

97:                                               ; preds = %86
  %98 = getelementptr inbounds nuw %"class.icu_77::number::impl::SimpleModifier", ptr %19, i32 0, i32 6
  store i32 0, ptr %98, align 4, !tbaa !66
  br label %99

99:                                               ; preds = %97, %93
  br label %100

100:                                              ; preds = %99, %46
  call void @llvm.lifetime.end.p0(i64 4, ptr %14) #15
  ret void

101:                                              ; preds = %56, %52
  call void @_ZN6icu_776number4impl8ModifierD2Ev(ptr noundef nonnull align 8 dereferenceable(8) %19) #15
  br label %102

102:                                              ; preds = %101
  %103 = load ptr, ptr %12, align 8
  %104 = load i32, ptr %13, align 4
  %105 = insertvalue { ptr, i32 } poison, ptr %103, 0
  %106 = insertvalue { ptr, i32 } %105, i32 %104, 1
  resume { ptr, i32 } %106
}