; Function Attrs: mustprogress uwtable
define void @_ZN6icu_776number4impl14SimpleModifierC2ERKNS_15SimpleFormatterENS_22FormattedStringBuilder5FieldEbNS1_8Modifier10ParametersE(ptr noundef nonnull align 8 dereferenceable(104) initializes((0, 8)) %0, ptr noundef nonnull align 8 dereferenceable(72) %1, i8 %2, i1 noundef zeroext %3, ptr %4, i64 %5) unnamed_addr #4 align 2 personality ptr @__gxx_personality_v0 {
  store ptr getelementptr inbounds nuw inrange(-16, 72) (i8, ptr @_ZTVN6icu_776number4impl14SimpleModifierE, i64 16), ptr %0, align 8, !tbaa !13
  %7 = getelementptr inbounds nuw i8, ptr %0, i64 8
  %8 = getelementptr inbounds nuw i8, ptr %1, i64 8
  tail call void @_ZN6icu_7713UnicodeStringC1ERKS0_(ptr noundef nonnull align 8 dereferenceable(64) %7, ptr noundef nonnull align 8 dereferenceable(64) %8)
  %9 = zext i1 %3 to i8
  %10 = getelementptr inbounds nuw i8, ptr %0, i64 72
  store i8 %2, ptr %10, align 8, !tbaa !21
  %11 = getelementptr inbounds nuw i8, ptr %0, i64 73
  store i8 %9, ptr %11, align 1, !tbaa !33
  %12 = getelementptr inbounds nuw i8, ptr %0, i64 76
  %13 = getelementptr inbounds nuw i8, ptr %0, i64 80
  %14 = getelementptr inbounds nuw i8, ptr %0, i64 88
  store ptr %4, ptr %14, align 8, !tbaa !36
  %.sroa.2.0..sroa_idx = getelementptr inbounds nuw i8, ptr %0, i64 96
  store i64 %5, ptr %.sroa.2.0..sroa_idx, align 8
  %15 = getelementptr inbounds nuw i8, ptr %0, i64 16
  %16 = load i16, ptr %15, align 8, !tbaa !21
  %17 = and i16 %16, 17
  %.not.i = icmp eq i16 %17, 0
  br i1 %.not.i, label %18, label %25

18:                                               ; preds = %6
  %19 = and i16 %16, 2
  %.not2.i = icmp eq i16 %19, 0
  br i1 %.not2.i, label %22, label %20

20:                                               ; preds = %18
  %21 = getelementptr inbounds nuw i8, ptr %0, i64 18
  br label %25

22:                                               ; preds = %18
  %23 = getelementptr inbounds nuw i8, ptr %0, i64 32
  %24 = load ptr, ptr %23, align 8, !tbaa !21
  br label %25

25:                                               ; preds = %22, %20, %6
  %.0.i = phi ptr [ %21, %20 ], [ %24, %22 ], [ null, %6 ]
  %26 = icmp slt i16 %16, 0
  %27 = ashr i16 %16, 5
  %28 = sext i16 %27 to i32
  %29 = getelementptr inbounds nuw i8, ptr %0, i64 20
  %30 = load i32, ptr %29, align 4
  %31 = select i1 %26, i32 %30, i32 %28
  %32 = icmp eq i32 %31, 0
  br i1 %32, label %_ZNK6icu_7713UnicodeString6charAtEi.exit, label %_ZN6icu_7715SimpleFormatter16getArgumentLimitEPKDsi.exit

_ZN6icu_7715SimpleFormatter16getArgumentLimitEPKDsi.exit: ; preds = %25
  %33 = load i16, ptr %.0.i, align 2, !tbaa !37
  %34 = icmp eq i16 %33, 0
  %.not20 = icmp eq i32 %31, 1
  br i1 %34, label %_ZN6icu_7715SimpleFormatter16getArgumentLimitEPKDsi.exit.thread, label %45

_ZN6icu_7715SimpleFormatter16getArgumentLimitEPKDsi.exit.thread: ; preds = %_ZN6icu_7715SimpleFormatter16getArgumentLimitEPKDsi.exit
  br i1 %.not20, label %_ZNK6icu_7713UnicodeString6charAtEi.exit, label %35

35:                                               ; preds = %_ZN6icu_7715SimpleFormatter16getArgumentLimitEPKDsi.exit.thread
  %36 = and i16 %16, 2
  %.not.i.i.i = icmp eq i16 %36, 0
  %37 = getelementptr inbounds nuw i8, ptr %0, i64 18
  %38 = getelementptr inbounds nuw i8, ptr %0, i64 32
  %39 = load ptr, ptr %38, align 8
  %40 = select i1 %.not.i.i.i, ptr %39, ptr %37
  %41 = getelementptr inbounds nuw i8, ptr %40, i64 2
  %42 = load i16, ptr %41, align 2, !tbaa !37
  %43 = zext i16 %42 to i32
  %44 = add nsw i32 %43, -256
  br label %_ZNK6icu_7713UnicodeString6charAtEi.exit

_ZNK6icu_7713UnicodeString6charAtEi.exit:         ; preds = %25, %35, %_ZN6icu_7715SimpleFormatter16getArgumentLimitEPKDsi.exit.thread
  %.0.i.i = phi i32 [ %44, %35 ], [ 65279, %_ZN6icu_7715SimpleFormatter16getArgumentLimitEPKDsi.exit.thread ], [ 65279, %25 ]
  store i32 %.0.i.i, ptr %12, align 4, !tbaa !39
  store i32 -1, ptr %13, align 8, !tbaa !40
  br label %_ZNK6icu_7713UnicodeString6charAtEi.exit16

45:                                               ; preds = %_ZN6icu_7715SimpleFormatter16getArgumentLimitEPKDsi.exit
  br i1 %.not20, label %_ZNK6icu_7713UnicodeString6charAtEi.exit13, label %_ZNK6icu_7713UnicodeString6charAtEi.exit10

_ZNK6icu_7713UnicodeString6charAtEi.exit10:       ; preds = %45
  %46 = and i16 %16, 2
  %.not.i.i.i9 = icmp eq i16 %46, 0
  %47 = getelementptr inbounds nuw i8, ptr %0, i64 18
  %48 = getelementptr inbounds nuw i8, ptr %0, i64 32
  %49 = load ptr, ptr %48, align 8
  %50 = select i1 %.not.i.i.i9, ptr %49, ptr %47
  %51 = getelementptr inbounds nuw i8, ptr %50, i64 2
  %52 = load i16, ptr %51, align 2, !tbaa !37
  %.not = icmp eq i16 %52, 0
  br i1 %.not, label %58, label %53

53:                                               ; preds = %_ZNK6icu_7713UnicodeString6charAtEi.exit10
  %54 = zext i16 %52 to i32
  br label %_ZNK6icu_7713UnicodeString6charAtEi.exit13

_ZNK6icu_7713UnicodeString6charAtEi.exit13:       ; preds = %53, %45
  %.0.i.i11 = phi i32 [ %54, %53 ], [ 65535, %45 ]
  %55 = add nsw i32 %.0.i.i11, -256
  store i32 %55, ptr %12, align 4, !tbaa !39
  %56 = add nsw i32 %.0.i.i11, -253
  %57 = add nsw i32 %.0.i.i11, -253
  br label %59

58:                                               ; preds = %_ZNK6icu_7713UnicodeString6charAtEi.exit10
  store i32 0, ptr %12, align 4, !tbaa !39
  br label %59

59:                                               ; preds = %_ZNK6icu_7713UnicodeString6charAtEi.exit13, %58
  %60 = phi i32 [ 3, %58 ], [ %57, %_ZNK6icu_7713UnicodeString6charAtEi.exit13 ]
  %storemerge = phi i32 [ 2, %58 ], [ %56, %_ZNK6icu_7713UnicodeString6charAtEi.exit13 ]
  store i32 %storemerge, ptr %13, align 8, !tbaa !40
  %61 = icmp slt i32 %60, %31
  br i1 %61, label %62, label %_ZNK6icu_7713UnicodeString6charAtEi.exit16

62:                                               ; preds = %59
  %63 = icmp ult i32 %storemerge, %31
  br i1 %63, label %64, label %_ZNK6icu_7713UnicodeString6charAtEi.exit16

64:                                               ; preds = %62
  %65 = and i16 %16, 2
  %.not.i.i.i15 = icmp eq i16 %65, 0
  %66 = getelementptr inbounds nuw i8, ptr %0, i64 18
  %67 = getelementptr inbounds nuw i8, ptr %0, i64 32
  %68 = load ptr, ptr %67, align 8
  %69 = select i1 %.not.i.i.i15, ptr %68, ptr %66
  %70 = sext i32 %storemerge to i64
  %71 = getelementptr inbounds i16, ptr %69, i64 %70
  %72 = load i16, ptr %71, align 2, !tbaa !37
  %73 = zext i16 %72 to i32
  %74 = add nsw i32 %73, -256
  br label %_ZNK6icu_7713UnicodeString6charAtEi.exit16

_ZNK6icu_7713UnicodeString6charAtEi.exit16:       ; preds = %59, %62, %64, %_ZNK6icu_7713UnicodeString6charAtEi.exit
  %.0.i.i14.sink = phi i32 [ 0, %_ZNK6icu_7713UnicodeString6charAtEi.exit ], [ %74, %64 ], [ 65279, %62 ], [ 0, %59 ]
  %75 = getelementptr inbounds nuw i8, ptr %0, i64 84
  store i32 %.0.i.i14.sink, ptr %75, align 4, !tbaa !41
  ret void
}